target datalayout = "e-m:e-p270:32:32-p271:32:32-p272:64:64-i64:64-i128:128-f80:128-n8:16:32:64-S128"
target triple = "x86_64-pc-linux-gnu"

%"class.std::__cxx11::basic_string" = type { %"struct.std::__cxx11::basic_string<char>::_Alloc_hider", i64, %union.anon }
%"struct.std::__cxx11::basic_string<char>::_Alloc_hider" = type { ptr }
%union.anon = type { i64, [8 x i8] }
%"class.std::allocator" = type { i8 }
%"class.cv::Mat" = type { i32, i32, i32, i32, ptr, ptr, ptr, ptr, ptr, ptr, %"struct.cv::MatSize", %"struct.cv::MatStep" }
%"struct.cv::MatSize" = type { ptr }
%"struct.cv::MatStep" = type { ptr, [2 x i64] }

@.str.31 = private unnamed_addr constant [118 x i8] c"generated/home/dtcxzyw/WorkSpace/Projects/compilers/llvm-opt-benchmark/bench/opencv/opencv/modules/ts/src/ts_func.cpp\00", align 1
@.str.40 = private unnamed_addr constant [70 x i8] c"src.data != dst.data && \22Inplace is not support in cvtest::transpose\22\00", align 1
@__func__._ZN6cvtest9transposeERKN2cv3MatERS1_ = private unnamed_addr constant [10 x i8] c"transpose\00", align 1
@.str.41 = private unnamed_addr constant [14 x i8] c"src.dims == 2\00", align 1

; Function Attrs: mustprogress nounwind uwtable
define linkonce_odr hidden noundef nonnull align 8 dereferenceable(8) ptr @_ZNK2cv7MatStepixEi(ptr noundef nonnull align 8 dereferenceable(24) %0, i32 noundef %1) #4 comdat align 2 {
  %3 = alloca ptr, align 8
  %4 = alloca i32, align 4
  store ptr %0, ptr %3, align 8
  store i32 %1, ptr %4, align 4
  %5 = load ptr, ptr %3, align 8
  %6 = getelementptr inbounds %"struct.cv::MatStep", ptr %5, i32 0, i32 0
  %7 = load ptr, ptr %6, align 8
  %8 = load i32, ptr %4, align 4
  %9 = sext i32 %8 to i64
  %10 = getelementptr inbounds i64, ptr %7, i64 %9
  ret ptr %10
}

; Function Attrs: mustprogress nounwind uwtable
define linkonce_odr hidden noundef ptr @_ZN2cv3Mat3ptrEi(ptr noundef nonnull align 8 dereferenceable(96) %0, i32 noundef %1) #4 comdat align 2 {
  %3 = alloca ptr, align 8
  %4 = alloca i32, align 4
  store ptr %0, ptr %3, align 8
  store i32 %1, ptr %4, align 4
  %5 = load ptr, ptr %3, align 8
  %6 = getelementptr inbounds %"class.cv::Mat", ptr %5, i32 0, i32 4
  %7 = load ptr, ptr %6, align 8
  %8 = getelementptr inbounds %"class.cv::Mat", ptr %5, i32 0, i32 11
  %9 = getelementptr inbounds %"struct.cv::MatStep", ptr %8, i32 0, i32 0
  %10 = load ptr, ptr %9, align 8
  %11 = getelementptr inbounds i64, ptr %10, i64 0
  %12 = load i64, ptr %11, align 8
  %13 = load i32, ptr %4, align 4
  %14 = sext i32 %13 to i64
  %15 = mul i64 %12, %14
  %16 = getelementptr inbounds i8, ptr %7, i64 %15
  ret ptr %16
}

; Function Attrs: mustprogress nounwind uwtable
define linkonce_odr hidden noundef ptr @_ZNK2cv3Mat3ptrEi(ptr noundef nonnull align 8 dereferenceable(96) %0, i32 noundef %1) #4 comdat align 2 {
  %3 = alloca ptr, align 8
  %4 = alloca i32, align 4
  store ptr %0, ptr %3, align 8
  store i32 %1, ptr %4, align 4
  %5 = load ptr, ptr %3, align 8
  %6 = getelementptr inbounds %"class.cv::Mat", ptr %5, i32 0, i32 4
  %7 = load ptr, ptr %6, align 8
  %8 = getelementptr inbounds %"class.cv::Mat", ptr %5, i32 0, i32 11
  %9 = getelementptr inbounds %"struct.cv::MatStep", ptr %8, i32 0, i32 0
  %10 = load ptr, ptr %9, align 8
  %11 = getelementptr inbounds i64, ptr %10, i64 0
  %12 = load i64, ptr %11, align 8
  %13 = load i32, ptr %4, align 4
  %14 = sext i32 %13 to i64
  %15 = mul i64 %12, %14
  %16 = getelementptr inbounds i8, ptr %7, i64 %15
  ret ptr %16
}

; Function Attrs: mustprogress nounwind uwtable
define linkonce_odr hidden noundef i64 @_ZNK2cv3Mat8elemSizeEv(ptr noundef nonnull align 8 dereferenceable(96) %0) #4 comdat align 2 {
  %2 = alloca ptr, align 8
  %3 = alloca i64, align 8
  store ptr %0, ptr %2, align 8
  %4 = load ptr, ptr %2, align 8
  %5 = getelementptr inbounds %"class.cv::Mat", ptr %4, i32 0, i32 1
  %6 = load i32, ptr %5, align 4
  %7 = icmp sgt i32 %6, 0
  br i1 %7, label %8, label %18

8:                                                ; preds = %1
  %9 = getelementptr inbounds %"class.cv::Mat", ptr %4, i32 0, i32 11
  %10 = getelementptr inbounds %"struct.cv::MatStep", ptr %9, i32 0, i32 0
  %11 = load ptr, ptr %10, align 8
  %12 = getelementptr inbounds %"class.cv::Mat", ptr %4, i32 0, i32 1
  %13 = load i32, ptr %12, align 4
  %14 = sub nsw i32 %13, 1
  %15 = sext i32 %14 to i64
  %16 = getelementptr inbounds i64, ptr %11, i64 %15
  %17 = load i64, ptr %16, align 8
  br label %19

18:                                               ; preds = %1
  br label %19

19:                                               ; preds = %18, %8
  %20 = phi i64 [ %17, %8 ], [ 0, %18 ]
  store i64 %20, ptr %3, align 8
  %21 = load i64, ptr %3, align 8
  ret i64 %21
}

; Function Attrs: mustprogress nounwind uwtable
define linkonce_odr hidden noundef i32 @_ZNK2cv3Mat4typeEv(ptr noundef nonnull align 8 dereferenceable(96) %0) #4 comdat align 2 {
  %2 = alloca ptr, align 8
  store ptr %0, ptr %2, align 8
  %3 = load ptr, ptr %2, align 8
  %4 = getelementptr inbounds %"class.cv::Mat", ptr %3, i32 0, i32 0
  %5 = load i32, ptr %4, align 8
  %6 = and i32 %5, 4095
  ret i32 %6
}

; Function Attrs: mustprogress uwtable
define hidden void @_ZN6cvtest9transposeERKN2cv3MatERS1_(ptr noundef nonnull align 8 dereferenceable(96) %0, ptr noundef nonnull align 8 dereferenceable(96) %1) #6 personality ptr @__gxx_personality_v0 {
  %3 = alloca ptr, align 8
  %4 = alloca ptr, align 8
  %5 = alloca %"class.std::__cxx11::basic_string", align 8
  %6 = alloca %"class.std::allocator", align 1
  %7 = alloca ptr, align 8
  %8 = alloca i32, align 4
  %9 = alloca %"class.std::__cxx11::basic_string", align 8
  %10 = alloca %"class.std::allocator", align 1
  %11 = alloca i32, align 4
  %12 = alloca i32, align 4
  %13 = alloca i32, align 4
  %14 = alloca i32, align 4
  %15 = alloca ptr, align 8
  %16 = alloca ptr, align 8
  store ptr %0, ptr %3, align 8
  store ptr %1, ptr %4, align 8
  br label %17

17:                                               ; preds = %2
  %18 = load ptr, ptr %3, align 8
  %19 = getelementptr inbounds %"class.cv::Mat", ptr %18, i32 0, i32 4
  %20 = load ptr, ptr %19, align 8
  %21 = load ptr, ptr %4, align 8
  %22 = getelementptr inbounds %"class.cv::Mat", ptr %21, i32 0, i32 4
  %23 = load ptr, ptr %22, align 8
  %24 = icmp ne ptr %20, %23
  br i1 %24, label %25, label %26

25:                                               ; preds = %17
  br label %38

26:                                               ; preds = %17
  call void @_ZNSaIcEC1Ev(ptr noundef nonnull align 1 dereferenceable(1) %6) #3
  invoke void @_ZNSt7__cxx1112basic_stringIcSt11char_traitsIcESaIcEEC1EPKcRKS3_(ptr noundef nonnull align 8 dereferenceable(32) %5, ptr noundef @.str.40, ptr noundef nonnull align 1 dereferenceable(1) %6)
          to label %27 unwind label %29

27:                                               ; preds = %26
  invoke void @_ZN2cv5errorEiRKNSt7__cxx1112basic_stringIcSt11char_traitsIcESaIcEEEPKcS9_i(i32 noundef -215, ptr noundef nonnull align 8 dereferenceable(32) %5, ptr noundef @__func__._ZN6cvtest9transposeERKN2cv3MatERS1_, ptr noundef @.str.31, i32 noundef 517) #18
          to label %28 unwind label %33

28:                                               ; preds = %27
  unreachable

29:                                               ; preds = %26
  %30 = landingpad { ptr, i32 }
          cleanup
  %31 = extractvalue { ptr, i32 } %30, 0
  store ptr %31, ptr %7, align 8
  %32 = extractvalue { ptr, i32 } %30, 1
  store i32 %32, ptr %8, align 4
  br label %37

33:                                               ; preds = %27
  %34 = landingpad { ptr, i32 }
          cleanup
  %35 = extractvalue { ptr, i32 } %34, 0
  store ptr %35, ptr %7, align 8
  %36 = extractvalue { ptr, i32 } %34, 1
  store i32 %36, ptr %8, align 4
  call void @_ZNSt7__cxx1112basic_stringIcSt11char_traitsIcESaIcEED1Ev(ptr noundef nonnull align 8 dereferenceable(32) %5) #3
  br label %37

37:                                               ; preds = %33, %29
  call void @_ZNSaIcED1Ev(ptr noundef nonnull align 1 dereferenceable(1) %6) #3
  br label %132

38:                                               ; preds = %25
  br label %39

39:                                               ; preds = %38
  br label %40

40:                                               ; preds = %39
  %41 = load ptr, ptr %3, align 8
  %42 = getelementptr inbounds %"class.cv::Mat", ptr %41, i32 0, i32 1
  %43 = load i32, ptr %42, align 4
  %44 = icmp eq i32 %43, 2
  br i1 %44, label %45, label %46

45:                                               ; preds = %40
  br label %58

46:                                               ; preds = %40
  call void @_ZNSaIcEC1Ev(ptr noundef nonnull align 1 dereferenceable(1) %10) #3
  invoke void @_ZNSt7__cxx1112basic_stringIcSt11char_traitsIcESaIcEEC1EPKcRKS3_(ptr noundef nonnull align 8 dereferenceable(32) %9, ptr noundef @.str.41, ptr noundef nonnull align 1 dereferenceable(1) %10)
          to label %47 unwind label %49

47:                                               ; preds = %46
  invoke void @_ZN2cv5errorEiRKNSt7__cxx1112basic_stringIcSt11char_traitsIcESaIcEEEPKcS9_i(i32 noundef -215, ptr noundef nonnull align 8 dereferenceable(32) %9, ptr noundef @__func__._ZN6cvtest9transposeERKN2cv3MatERS1_, ptr noundef @.str.31, i32 noundef 518) #18
          to label %48 unwind label %53

48:                                               ; preds = %47
  unreachable

49:                                               ; preds = %46
  %50 = landingpad { ptr, i32 }
          cleanup
  %51 = extractvalue { ptr, i32 } %50, 0
  store ptr %51, ptr %7, align 8
  %52 = extractvalue { ptr, i32 } %50, 1
  store i32 %52, ptr %8, align 4
  br label %57

53:                                               ; preds = %47
  %54 = landingpad { ptr, i32 }
          cleanup
  %55 = extractvalue { ptr, i32 } %54, 0
  store ptr %55, ptr %7, align 8
  %56 = extractvalue { ptr, i32 } %54, 1
  store i32 %56, ptr %8, align 4
  call void @_ZNSt7__cxx1112basic_stringIcSt11char_traitsIcESaIcEED1Ev(ptr noundef nonnull align 8 dereferenceable(32) %9) #3
  br label %57

57:                                               ; preds = %53, %49
  call void @_ZNSaIcED1Ev(ptr noundef nonnull align 1 dereferenceable(1) %10) #3
  br label %132

58:                                               ; preds = %45
  br label %59

59:                                               ; preds = %58
  %60 = load ptr, ptr %4, align 8
  %61 = load ptr, ptr %3, align 8
  %62 = getelementptr inbounds %"class.cv::Mat", ptr %61, i32 0, i32 3
  %63 = load i32, ptr %62, align 4
  %64 = load ptr, ptr %3, align 8
  %65 = getelementptr inbounds %"class.cv::Mat", ptr %64, i32 0, i32 2
  %66 = load i32, ptr %65, align 8
  %67 = load ptr, ptr %3, align 8
  %68 = call noundef i32 @_ZNK2cv3Mat4typeEv(ptr noundef nonnull align 8 dereferenceable(96) %67)
  call void @_ZN2cv3Mat6createEiii(ptr noundef nonnull align 8 dereferenceable(96) %60, i32 noundef %63, i32 noundef %66, i32 noundef %68)
  %69 = load ptr, ptr %3, align 8
  %70 = call noundef i64 @_ZNK2cv3Mat8elemSizeEv(ptr noundef nonnull align 8 dereferenceable(96) %69)
  %71 = trunc i64 %70 to i32
  store i32 %71, ptr %14, align 4
  store i32 0, ptr %11, align 4
  br label %72

72:                                               ; preds = %128, %59
  %73 = load i32, ptr %11, align 4
  %74 = load ptr, ptr %4, align 8
  %75 = getelementptr inbounds %"class.cv::Mat", ptr %74, i32 0, i32 2
  %76 = load i32, ptr %75, align 8
  %77 = icmp slt i32 %73, %76
  br i1 %77, label %78, label %131

78:                                               ; preds = %72
  %79 = load ptr, ptr %3, align 8
  %80 = call noundef ptr @_ZNK2cv3Mat3ptrEi(ptr noundef nonnull align 8 dereferenceable(96) %79, i32 noundef 0)
  %81 = load i32, ptr %11, align 4
  %82 = load i32, ptr %14, align 4
  %83 = mul nsw i32 %81, %82
  %84 = sext i32 %83 to i64
  %85 = getelementptr inbounds i8, ptr %80, i64 %84
  store ptr %85, ptr %15, align 8
  %86 = load ptr, ptr %4, align 8
  %87 = load i32, ptr %11, align 4
  %88 = call noundef ptr @_ZN2cv3Mat3ptrEi(ptr noundef nonnull align 8 dereferenceable(96) %86, i32 noundef %87)
  store ptr %88, ptr %16, align 8
  store i32 0, ptr %12, align 4
  br label %89

89:                                               ; preds = %114, %78
  %90 = load i32, ptr %12, align 4
  %91 = load ptr, ptr %4, align 8
  %92 = getelementptr inbounds %"class.cv::Mat", ptr %91, i32 0, i32 3
  %93 = load i32, ptr %92, align 4
  %94 = icmp slt i32 %90, %93
  br i1 %94, label %95, label %127

95:                                               ; preds = %89
  store i32 0, ptr %13, align 4
  br label %96

96:                                               ; preds = %110, %95
  %97 = load i32, ptr %13, align 4
  %98 = load i32, ptr %14, align 4
  %99 = icmp slt i32 %97, %98
  br i1 %99, label %100, label %113

100:                                              ; preds = %96
  %101 = load ptr, ptr %15, align 8
  %102 = load i32, ptr %13, align 4
  %103 = sext i32 %102 to i64
  %104 = getelementptr inbounds i8, ptr %101, i64 %103
  %105 = load i8, ptr %104, align 1
  %106 = load ptr, ptr %16, align 8
  %107 = load i32, ptr %13, align 4
  %108 = sext i32 %107 to i64
  %109 = getelementptr inbounds i8, ptr %106, i64 %108
  store i8 %105, ptr %109, align 1
  br label %110

110:                                              ; preds = %100
  %111 = load i32, ptr %13, align 4
  %112 = add nsw i32 %111, 1
  store i32 %112, ptr %13, align 4
  br label %96, !llvm.loop !38

113:                                              ; preds = %96
  br label %114

114:                                              ; preds = %113
  %115 = load i32, ptr %12, align 4
  %116 = add nsw i32 %115, 1
  store i32 %116, ptr %12, align 4
  %117 = load ptr, ptr %3, align 8
  %118 = getelementptr inbounds %"class.cv::Mat", ptr %117, i32 0, i32 11
  %119 = call noundef nonnull align 8 dereferenceable(8) ptr @_ZNK2cv7MatStepixEi(ptr noundef nonnull align 8 dereferenceable(24) %118, i32 noundef 0) #3
  %120 = load i64, ptr %119, align 8
  %121 = load ptr, ptr %15, align 8
  %122 = getelementptr inbounds i8, ptr %121, i64 %120
  store ptr %122, ptr %15, align 8
  %123 = load i32, ptr %14, align 4
  %124 = load ptr, ptr %16, align 8
  %125 = sext i32 %123 to i64
  %126 = getelementptr inbounds i8, ptr %124, i64 %125
  store ptr %126, ptr %16, align 8
  br label %89, !llvm.loop !39

127:                                              ; preds = %89
  br label %128

128:                                              ; preds = %127
  %129 = load i32, ptr %11, align 4
  %130 = add nsw i32 %129, 1
  store i32 %130, ptr %11, align 4
  br label %72, !llvm.loop !40

131:                                              ; preds = %72
  ret void

132:                                              ; preds = %57, %37
  %133 = load ptr, ptr %7, align 8
  %134 = load i32, ptr %8, align 4
  %135 = insertvalue { ptr, i32 } poison, ptr %133, 0
  %136 = insertvalue { ptr, i32 } %135, i32 %134, 1
  resume { ptr, i32 } %136
}