; Function Attrs: mustprogress uwtable
define hidden void @_ZN6cvtest9transposeERKN2cv3MatERS1_(ptr nocapture noundef nonnull readonly align 8 dereferenceable(96) %0, ptr noundef nonnull align 8 dereferenceable(96) %1) local_unnamed_addr #6 personality ptr @__gxx_personality_v0 {
  %3 = alloca %"class.std::__cxx11::basic_string", align 8
  %4 = alloca %"class.std::allocator", align 1
  %5 = alloca %"class.std::__cxx11::basic_string", align 8
  %6 = alloca %"class.std::allocator", align 1
  %7 = getelementptr inbounds i8, ptr %0, i64 16
  %8 = load ptr, ptr %7, align 8
  %9 = getelementptr inbounds i8, ptr %1, i64 16
  %10 = load ptr, ptr %9, align 8
  %.not = icmp eq ptr %8, %10
  br i1 %.not, label %11, label %18

11:                                               ; preds = %2
  call void @_ZNSaIcEC1Ev(ptr noundef nonnull align 1 dereferenceable(1) %4) #28
  invoke void @_ZNSt7__cxx1112basic_stringIcSt11char_traitsIcESaIcEEC1EPKcRKS3_(ptr noundef nonnull align 8 dereferenceable(32) %3, ptr noundef nonnull @.str.40, ptr noundef nonnull align 1 dereferenceable(1) %4)
          to label %12 unwind label %14

12:                                               ; preds = %11
  invoke void @_ZN2cv5errorEiRKNSt7__cxx1112basic_stringIcSt11char_traitsIcESaIcEEEPKcS9_i(i32 noundef -215, ptr noundef nonnull align 8 dereferenceable(32) %3, ptr noundef nonnull @__func__._ZN6cvtest9transposeERKN2cv3MatERS1_, ptr noundef nonnull @.str.31, i32 noundef 517) #29
          to label %13 unwind label %16

13:                                               ; preds = %12
  unreachable

14:                                               ; preds = %11
  %15 = landingpad { ptr, i32 }
          cleanup
  br label %84

16:                                               ; preds = %12
  %17 = landingpad { ptr, i32 }
          cleanup
  call void @_ZNSt7__cxx1112basic_stringIcSt11char_traitsIcESaIcEED1Ev(ptr noundef nonnull align 8 dereferenceable(32) %3) #28
  br label %84

18:                                               ; preds = %2
  %19 = getelementptr inbounds i8, ptr %0, i64 4
  %20 = load i32, ptr %19, align 4
  %21 = icmp eq i32 %20, 2
  br i1 %21, label %29, label %22

22:                                               ; preds = %18
  call void @_ZNSaIcEC1Ev(ptr noundef nonnull align 1 dereferenceable(1) %6) #28
  invoke void @_ZNSt7__cxx1112basic_stringIcSt11char_traitsIcESaIcEEC1EPKcRKS3_(ptr noundef nonnull align 8 dereferenceable(32) %5, ptr noundef nonnull @.str.41, ptr noundef nonnull align 1 dereferenceable(1) %6)
          to label %23 unwind label %25

23:                                               ; preds = %22
  invoke void @_ZN2cv5errorEiRKNSt7__cxx1112basic_stringIcSt11char_traitsIcESaIcEEEPKcS9_i(i32 noundef -215, ptr noundef nonnull align 8 dereferenceable(32) %5, ptr noundef nonnull @__func__._ZN6cvtest9transposeERKN2cv3MatERS1_, ptr noundef nonnull @.str.31, i32 noundef 518) #29
          to label %24 unwind label %27

24:                                               ; preds = %23
  unreachable

25:                                               ; preds = %22
  %26 = landingpad { ptr, i32 }
          cleanup
  br label %84

27:                                               ; preds = %23
  %28 = landingpad { ptr, i32 }
          cleanup
  call void @_ZNSt7__cxx1112basic_stringIcSt11char_traitsIcESaIcEED1Ev(ptr noundef nonnull align 8 dereferenceable(32) %5) #28
  br label %84

29:                                               ; preds = %18
  %30 = getelementptr inbounds i8, ptr %0, i64 12
  %31 = load i32, ptr %30, align 4
  %32 = getelementptr inbounds i8, ptr %0, i64 8
  %33 = load i32, ptr %32, align 8
  %34 = load i32, ptr %0, align 8
  %35 = and i32 %34, 4095
  tail call void @_ZN2cv3Mat6createEiii(ptr noundef nonnull align 8 dereferenceable(96) %1, i32 noundef %31, i32 noundef %33, i32 noundef %35)
  %36 = load i32, ptr %19, align 4
  %37 = icmp sgt i32 %36, 0
  br i1 %37, label %38, label %_ZNK2cv3Mat8elemSizeEv.exit

38:                                               ; preds = %29
  %39 = getelementptr inbounds i8, ptr %0, i64 72
  %40 = load ptr, ptr %39, align 8
  %41 = zext nneg i32 %36 to i64
  %42 = getelementptr i64, ptr %40, i64 %41
  %43 = getelementptr i8, ptr %42, i64 -8
  %44 = load i64, ptr %43, align 8
  br label %_ZNK2cv3Mat8elemSizeEv.exit

_ZNK2cv3Mat8elemSizeEv.exit:                      ; preds = %29, %38
  %45 = phi i64 [ %44, %38 ], [ 0, %29 ]
  %46 = getelementptr inbounds i8, ptr %1, i64 8
  %47 = load i32, ptr %46, align 8
  %48 = icmp sgt i32 %47, 0
  br i1 %48, label %.lr.ph, label %._crit_edge

.lr.ph:                                           ; preds = %_ZNK2cv3Mat8elemSizeEv.exit
  %49 = trunc i64 %45 to i32
  %50 = getelementptr inbounds i8, ptr %0, i64 72
  %51 = getelementptr inbounds i8, ptr %1, i64 72
  %52 = getelementptr inbounds i8, ptr %1, i64 12
  %53 = icmp slt i32 %49, 1
  %sext = shl i64 %45, 32
  %54 = ashr exact i64 %sext, 32
  %55 = load i32, ptr %52, align 4
  %56 = icmp sgt i32 %55, 0
  br i1 %56, label %.lr.ph.split.preheader, label %._crit_edge

.lr.ph.split.preheader:                           ; preds = %.lr.ph
  %sext56 = shl i64 %45, 32
  %57 = ashr exact i64 %sext56, 32
  %wide.trip.count = and i64 %45, 2147483647
  br label %.lr.ph.split

.lr.ph.split:                                     ; preds = %.lr.ph.split.preheader, %._crit_edge48
  %58 = phi i32 [ %47, %.lr.ph.split.preheader ], [ %80, %._crit_edge48 ]
  %59 = phi i32 [ %55, %.lr.ph.split.preheader ], [ %81, %._crit_edge48 ]
  %indvars.iv53 = phi i64 [ 0, %.lr.ph.split.preheader ], [ %indvars.iv.next54, %._crit_edge48 ]
  %60 = icmp slt i32 %59, 1
  %brmerge = select i1 %60, i1 true, i1 %53
  br i1 %brmerge, label %._crit_edge48, label %.preheader.us.preheader

.preheader.us.preheader:                          ; preds = %.lr.ph.split
  %61 = load ptr, ptr %9, align 8
  %62 = load ptr, ptr %51, align 8
  %63 = load i64, ptr %62, align 8
  %64 = mul i64 %63, %indvars.iv53
  %65 = getelementptr inbounds i8, ptr %61, i64 %64
  %66 = load ptr, ptr %7, align 8
  %67 = mul nuw nsw i64 %indvars.iv53, %57
  %68 = getelementptr inbounds i8, ptr %66, i64 %67
  br label %.preheader.us

.preheader.us:                                    ; preds = %.preheader.us.preheader, %._crit_edge.us
  %.047.us = phi ptr [ %77, %._crit_edge.us ], [ %65, %.preheader.us.preheader ]
  %.03146.us = phi ptr [ %76, %._crit_edge.us ], [ %68, %.preheader.us.preheader ]
  %.03445.us = phi i32 [ %73, %._crit_edge.us ], [ 0, %.preheader.us.preheader ]
  br label %69

69:                                               ; preds = %.preheader.us, %69
  %indvars.iv = phi i64 [ 0, %.preheader.us ], [ %indvars.iv.next, %69 ]
  %70 = getelementptr inbounds i8, ptr %.03146.us, i64 %indvars.iv
  %71 = load i8, ptr %70, align 1
  %72 = getelementptr inbounds i8, ptr %.047.us, i64 %indvars.iv
  store i8 %71, ptr %72, align 1
  %indvars.iv.next = add nuw nsw i64 %indvars.iv, 1
  %exitcond.not = icmp eq i64 %indvars.iv.next, %wide.trip.count
  br i1 %exitcond.not, label %._crit_edge.us, label %69, !llvm.loop !206

._crit_edge.us:                                   ; preds = %69
  %73 = add nuw nsw i32 %.03445.us, 1
  %74 = load ptr, ptr %50, align 8
  %75 = load i64, ptr %74, align 8
  %76 = getelementptr inbounds i8, ptr %.03146.us, i64 %75
  %77 = getelementptr inbounds i8, ptr %.047.us, i64 %54
  %78 = load i32, ptr %52, align 4
  %79 = icmp slt i32 %73, %78
  br i1 %79, label %.preheader.us, label %._crit_edge48.loopexit, !llvm.loop !207

._crit_edge48.loopexit:                           ; preds = %._crit_edge.us
  %.pre = load i32, ptr %46, align 8
  br label %._crit_edge48

._crit_edge48:                                    ; preds = %.lr.ph.split, %._crit_edge48.loopexit
  %80 = phi i32 [ %.pre, %._crit_edge48.loopexit ], [ %58, %.lr.ph.split ]
  %81 = phi i32 [ %78, %._crit_edge48.loopexit ], [ %59, %.lr.ph.split ]
  %indvars.iv.next54 = add nuw nsw i64 %indvars.iv53, 1
  %82 = sext i32 %80 to i64
  %83 = icmp slt i64 %indvars.iv.next54, %82
  br i1 %83, label %.lr.ph.split, label %._crit_edge, !llvm.loop !208

._crit_edge:                                      ; preds = %._crit_edge48, %.lr.ph, %_ZNK2cv3Mat8elemSizeEv.exit
  ret void

84:                                               ; preds = %25, %27, %14, %16
  %.sink = phi ptr [ %4, %16 ], [ %4, %14 ], [ %6, %27 ], [ %6, %25 ]
  %.pn41.pn = phi { ptr, i32 } [ %17, %16 ], [ %15, %14 ], [ %28, %27 ], [ %26, %25 ]
  call void @_ZNSaIcED1Ev(ptr noundef nonnull align 1 dereferenceable(1) %.sink) #28
  resume { ptr, i32 } %.pn41.pn
}